target datalayout = "e-m:e-p270:32:32-p271:32:32-p272:64:64-i64:64-i128:128-f80:128-n8:16:32:64-S128"
target triple = "x86_64-pc-linux-gnu"

%struct.HdrCbData = type { ptr, ptr, ptr, ptr, ptr, ptr, i8 }
%struct.curl_slist = type { ptr, ptr }

; Function Attrs: nounwind uwtable
define dso_local i32 @tool_write_headers(ptr noundef %0, ptr noundef %1) #0 {
  %3 = alloca i32, align 4
  %4 = alloca ptr, align 8
  %5 = alloca ptr, align 8
  %6 = alloca ptr, align 8
  %7 = alloca i32, align 4
  %8 = alloca i64, align 8
  %9 = alloca i32, align 4
  store ptr %0, ptr %4, align 8, !tbaa !4
  store ptr %1, ptr %5, align 8, !tbaa !9
  call void @llvm.lifetime.start.p0(i64 8, ptr %6) #7
  %10 = load ptr, ptr %4, align 8, !tbaa !4
  %11 = getelementptr inbounds nuw %struct.HdrCbData, ptr %10, i32 0, i32 5
  %12 = load ptr, ptr %11, align 8, !tbaa !11
  store ptr %12, ptr %6, align 8, !tbaa !18
  call void @llvm.lifetime.start.p0(i64 4, ptr %7) #7
  store i32 1, ptr %7, align 4, !tbaa !19
  br label %13

13:                                               ; preds = %36, %2
  %14 = load ptr, ptr %6, align 8, !tbaa !18
  %15 = icmp ne ptr %14, null
  br i1 %15, label %16, label %37

16:                                               ; preds = %13
  call void @llvm.lifetime.start.p0(i64 8, ptr %8) #7
  %17 = load ptr, ptr %6, align 8, !tbaa !18
  %18 = getelementptr inbounds nuw %struct.curl_slist, ptr %17, i32 0, i32 0
  %19 = load ptr, ptr %18, align 8, !tbaa !21
  %20 = call i64 @strlen(ptr noundef %19) #8
  store i64 %20, ptr %8, align 8, !tbaa !24
  %21 = load i64, ptr %8, align 8, !tbaa !24
  %22 = load ptr, ptr %6, align 8, !tbaa !18
  %23 = getelementptr inbounds nuw %struct.curl_slist, ptr %22, i32 0, i32 0
  %24 = load ptr, ptr %23, align 8, !tbaa !21
  %25 = load i64, ptr %8, align 8, !tbaa !24
  %26 = load ptr, ptr %5, align 8, !tbaa !9
  %27 = call i64 @fwrite(ptr noundef %24, i64 noundef 1, i64 noundef %25, ptr noundef %26)
  %28 = icmp ne i64 %21, %27
  br i1 %28, label %29, label %30

29:                                               ; preds = %16
  store i32 4, ptr %9, align 4
  br label %34

30:                                               ; preds = %16
  %31 = load ptr, ptr %6, align 8, !tbaa !18
  %32 = getelementptr inbounds nuw %struct.curl_slist, ptr %31, i32 0, i32 1
  %33 = load ptr, ptr %32, align 8, !tbaa !26
  store ptr %33, ptr %6, align 8, !tbaa !18
  store i32 0, ptr %9, align 4
  br label %34

34:                                               ; preds = %29, %30
  call void @llvm.lifetime.end.p0(i64 8, ptr %8) #7
  %35 = load i32, ptr %9, align 4
  switch i32 %35, label %45 [
    i32 0, label %36
    i32 4, label %38
  ]

36:                                               ; preds = %34
  br label %13, !llvm.loop !27

37:                                               ; preds = %13
  store i32 0, ptr %7, align 4, !tbaa !19
  br label %38

38:                                               ; preds = %37, %34
  %39 = load ptr, ptr %4, align 8, !tbaa !4
  %40 = getelementptr inbounds nuw %struct.HdrCbData, ptr %39, i32 0, i32 5
  %41 = load ptr, ptr %40, align 8, !tbaa !11
  call void @curl_slist_free_all(ptr noundef %41)
  %42 = load ptr, ptr %4, align 8, !tbaa !4
  %43 = getelementptr inbounds nuw %struct.HdrCbData, ptr %42, i32 0, i32 5
  store ptr null, ptr %43, align 8, !tbaa !11
  %44 = load i32, ptr %7, align 4, !tbaa !19
  store i32 %44, ptr %3, align 4
  store i32 1, ptr %9, align 4
  br label %45

45:                                               ; preds = %38, %34
  call void @llvm.lifetime.end.p0(i64 4, ptr %7) #7
  call void @llvm.lifetime.end.p0(i64 8, ptr %6) #7
  %46 = load i32, ptr %3, align 4
  ret i32 %46
}