; Function Attrs: nounwind uwtable
define dso_local range(i32 0, 2) i32 @tool_write_headers(ptr noundef captures(none) %0, ptr noundef captures(none) %1) local_unnamed_addr #0 {
  %3 = getelementptr inbounds nuw i8, ptr %0, i64 40
  %.01420 = load ptr, ptr %3, align 8, !tbaa !4
  %.not21 = icmp eq ptr %.01420, null
  br i1 %.not21, label %.thread, label %.lr.ph

4:                                                ; preds = %.lr.ph
  %5 = getelementptr inbounds nuw i8, ptr %.01422, i64 8
  %.014 = load ptr, ptr %5, align 8, !tbaa !4
  %.not = icmp eq ptr %.014, null
  br i1 %.not, label %.thread.loopexit, label %.lr.ph

.lr.ph:                                           ; preds = %2, %4
  %.01422 = phi ptr [ %.014, %4 ], [ %.01420, %2 ]
  %6 = load ptr, ptr %.01422, align 8, !tbaa !9
  %7 = tail call i64 @strlen(ptr noundef nonnull dereferenceable(1) %6) #12
  %8 = tail call i64 @fwrite(ptr noundef nonnull %6, i64 noundef 1, i64 noundef %7, ptr noundef %1)
  %.not15 = icmp eq i64 %7, %8
  br i1 %.not15, label %4, label %.thread.loopexit

.thread.loopexit:                                 ; preds = %.lr.ph, %4
  %.013.ph = phi i32 [ 0, %4 ], [ 1, %.lr.ph ]
  %.pre = load ptr, ptr %3, align 8, !tbaa !12
  br label %.thread

.thread:                                          ; preds = %.thread.loopexit, %2
  %9 = phi ptr [ null, %2 ], [ %.pre, %.thread.loopexit ]
  %.013 = phi i32 [ 0, %2 ], [ %.013.ph, %.thread.loopexit ]
  tail call void @curl_slist_free_all(ptr noundef %9) #13
  store ptr null, ptr %3, align 8, !tbaa !12
  ret i32 %.013
}